; Function Attrs: mustprogress uwtable
define void @_ZN7rocksdb11WalDeletion10DecodeFromEPNS_5SliceE(ptr dead_on_unwind noalias writable sret(%"class.rocksdb::Status") align 8 %0, ptr noundef nonnull align 8 dereferenceable(8) %1, ptr noundef captures(none) %2) local_unnamed_addr #0 align 2 personality ptr @__gxx_personality_v0 {
  %4 = alloca [12 x i8], align 1
  %5 = alloca %"class.rocksdb::Slice", align 8
  %6 = alloca %"class.rocksdb::Slice", align 8
  call void @llvm.lifetime.start.p0(i64 12, ptr nonnull %4) #16
  call void @llvm.memcpy.p0.p0.i64(ptr noundef nonnull align 1 dereferenceable(12) %4, ptr noundef nonnull align 1 dereferenceable(12) @__const._ZN7rocksdb11WalDeletion10DecodeFromEPNS_5SliceE.class_name, i64 12, i1 false)
  %7 = load ptr, ptr %2, align 8, !tbaa !19
  %8 = getelementptr inbounds nuw i8, ptr %2, i64 8
  %9 = load i64, ptr %8, align 8, !tbaa !21
  %10 = getelementptr inbounds nuw i8, ptr %7, i64 %9
  %11 = tail call noundef ptr @_ZN7rocksdb14GetVarint64PtrEPKcS1_Pm(ptr noundef %7, ptr noundef %10, ptr noundef nonnull %1)
  %.not = icmp eq ptr %11, null
  br i1 %.not, label %_ZN7rocksdb11GetVarint64EPNS_5SliceEPm.exit, label %15

_ZN7rocksdb11GetVarint64EPNS_5SliceEPm.exit:      ; preds = %3
  call void @llvm.lifetime.start.p0(i64 16, ptr nonnull %5) #16
  store ptr %4, ptr %5, align 8, !tbaa !19
  %12 = call i64 @strlen(ptr noundef nonnull dereferenceable(1) %4) #18
  %13 = getelementptr inbounds nuw i8, ptr %5, i64 8
  store i64 %12, ptr %13, align 8, !tbaa !21
  call void @llvm.lifetime.start.p0(i64 16, ptr nonnull %6) #16
  store ptr @.str, ptr %6, align 8, !tbaa !19
  %14 = getelementptr inbounds nuw i8, ptr %6, i64 8
  store i64 29, ptr %14, align 8, !tbaa !21
  call void @_ZN7rocksdb6StatusC2ENS0_4CodeENS0_7SubCodeERKNS_5SliceES5_NS0_8SeverityE(ptr noundef nonnull align 8 dereferenceable(16) %0, i8 noundef zeroext 2, i8 noundef zeroext 0, ptr noundef nonnull align 8 dereferenceable(16) %5, ptr noundef nonnull align 8 dereferenceable(16) %6, i8 noundef zeroext 0)
  call void @llvm.lifetime.end.p0(i64 16, ptr nonnull %6) #16
  call void @llvm.lifetime.end.p0(i64 16, ptr nonnull %5) #16
  br label %20

15:                                               ; preds = %3
  %16 = ptrtoint ptr %10 to i64
  %17 = ptrtoint ptr %11 to i64
  %18 = sub i64 %16, %17
  store ptr %11, ptr %2, align 8, !tbaa !22
  store i64 %18, ptr %8, align 8, !tbaa !23
  %19 = getelementptr inbounds nuw i8, ptr %0, i64 8
  store ptr null, ptr %19, align 8, !tbaa !27, !alias.scope !70
  tail call void @llvm.memset.p0.i64(ptr noundef nonnull align 8 dereferenceable(16) %0, i8 0, i64 6, i1 false), !alias.scope !70
  br label %20

20:                                               ; preds = %15, %_ZN7rocksdb11GetVarint64EPNS_5SliceEPm.exit
  call void @llvm.lifetime.end.p0(i64 12, ptr nonnull %4) #16
  ret void
}